(dp0
S'total_freq'
p1
cnumpy.core.multiarray
scalar
p2
(cnumpy
dtype
p3
(S'i8'
p4
I0
I1
tp5
Rp6
(I3
S'<'
p7
NNNI-1
I-1
I0
tp8
bS']\xa3l\x02\x00\x00\x00\x00'
p9
tp10
Rp11
sS'max_area'
p12
g2
(g6
S'\x02\x04\x00\x00\x00\x00\x00\x00'
p13
tp14
Rp15
sS'max_equal_area'
p16
g2
(g6
S':\x01\x00\x00\x00\x00\x00\x00'
p17
tp18
Rp19
sS'max_letter'
p20
S'o'
p21
sS'max_freq'
p22
g2
(g6
S'#}\t\x00\x00\x00\x00\x00'
p23
tp24
Rp25
sS'max_compromise'
p26
g2
(g6
S'd\x00\x00\x00\x00\x00\x00\x00'
p27
tp28
Rp29
sS'max_pct_for_legend'
p30
I15
sS'max_pct'
p31
g2
(g3
(S'f8'
p32
I0
I1
tp33
Rp34
(I3
S'<'
p35
NNNI-1
I-1
I0
tp36
bS'\x1e\xf1\xc7\x04#/,@'
p37
tp38
Rp39
s.